target datalayout = "e-m:e-p270:32:32-p271:32:32-p272:64:64-i64:64-i128:128-f80:128-n8:16:32:64-S128"
target triple = "x86_64-pc-linux-gnu"

%struct._VAConfigAttrib = type { i32, i32 }
%struct.AVCodecContext = type { ptr, i32, i32, ptr, i32, i32, ptr, ptr, ptr, i64, i32, i32, ptr, i32, %struct.AVRational, %struct.AVRational, %struct.AVRational, i32, i32, i32, i32, i32, %struct.AVRational, i32, i32, i32, i32, i32, i32, i32, i32, i32, i32, i32, ptr, ptr, i32, float, float, float, float, float, float, float, float, float, i32, i32, i32, i32, i32, i32, i32, i32, i32, i32, i32, i32, ptr, ptr, ptr, i32, i32, i32, i32, i32, i32, i32, i32, i32, i32, %struct.AVChannelLayout, i32, i32, i32, i32, i32, i32, i32, i32, ptr, i32, i32, i32, float, float, i32, i32, i32, i32, i32, ptr, i64, i64, float, float, i32, i32, ptr, ptr, i32, i32, i32, i32, i32, ptr, ptr, ptr, ptr, i32, i32, [8 x i64], i32, i32, i32, i32, i32, i32, i32, ptr, ptr, i32, i32, i32, i32, i32, i32, i32, i32, i32, i32, ptr, ptr, i32, i32, ptr, ptr, ptr, ptr, i32, i32, i64, i32, i32, i64, ptr, i64, ptr, i32, ptr, i32 }
%struct.AVRational = type { i32, i32 }
%struct.AVChannelLayout = type { i32, i32, %union.anon, ptr }
%union.anon = type { i64 }
%struct.VAAPIEncodeContext = type { %struct.FFHWBaseEncodeContext, ptr, i32, i32, i32, i32, i32, i32, ptr, ptr, i32, i32, i32, i32, i32, i32, [4 x %struct._VAConfigAttrib], i32, i32, i32, ptr, ptr, [4 x i32], [4 x ptr], [4 x i64], i32, %struct._VAEncMiscParameterRateControl, %struct._VAEncMiscParameterHRD, %struct._VAEncMiscParameterFrameRate, %struct._VAEncMiscParameterBufferMaxFrameSize, %struct._VAEncMiscParameterBufferQualityLevel, ptr, ptr, i32, i32, i32, i32, i32, i32, [20 x i32], [22 x i32], [21 x i32], [23 x i32], i32, i32, ptr, i32, i32 }
%struct.FFHWBaseEncodeContext = type { ptr, ptr, ptr, i32, i32, i32, i32, i32, i32, ptr, ptr, ptr, ptr, ptr, ptr, ptr, ptr, [2 x ptr], i32, i64, i64, i64, i64, i64, i64, i64, [112 x i64], i32, i32, i32, i32, i32, i32, i32, i32, i32, i32, i32, i32, i32, i32, i32, i32, ptr, i32, ptr, i32, ptr }
%struct._VAEncMiscParameterRateControl = type { i32, i32, i32, i32, i32, i32, %union.anon.0, i32, i32, i32, i32, [4 x i32] }
%union.anon.0 = type { %struct.anon }
%struct.anon = type { i32 }
%struct._VAEncMiscParameterHRD = type { i32, i32, [4 x i32] }
%struct._VAEncMiscParameterFrameRate = type { i32, %union.anon.1, [4 x i32] }
%union.anon.1 = type { %struct.anon.2 }
%struct.anon.2 = type { i32 }
%struct._VAEncMiscParameterBufferMaxFrameSize = type { i32, i32, [4 x i32] }
%struct._VAEncMiscParameterBufferQualityLevel = type { i32, [4 x i32] }
%struct.AVVAAPIDeviceContext = type { ptr, i32 }
%union.AVRefStructOpaque = type { ptr }

@.str.161 = private unnamed_addr constant [52 x i8] c"Failed to create bitstream output buffer: %d (%s).\0A\00", align 1
@.str.162 = private unnamed_addr constant [29 x i8] c"Allocated output buffer %#x\0A\00", align 1

; Function Attrs: nounwind uwtable
define internal i32 @vaapi_encode_alloc_output_buffer(ptr %0, ptr noundef %1) #0 {
  %3 = alloca i32, align 4
  %4 = alloca %union.AVRefStructOpaque, align 8
  %5 = alloca ptr, align 8
  %6 = alloca ptr, align 8
  %7 = alloca ptr, align 8
  %8 = alloca ptr, align 8
  %9 = alloca ptr, align 8
  %10 = alloca i32, align 4
  %11 = alloca i32, align 4
  %12 = getelementptr inbounds nuw %union.AVRefStructOpaque, ptr %4, i32 0, i32 0
  store ptr %0, ptr %12, align 8
  store ptr %1, ptr %5, align 8, !tbaa !108
  call void @llvm.lifetime.start.p0(i64 8, ptr %6) #10
  %13 = load ptr, ptr %4, align 8, !tbaa !158
  store ptr %13, ptr %6, align 8, !tbaa !4
  call void @llvm.lifetime.start.p0(i64 8, ptr %7) #10
  %14 = load ptr, ptr %6, align 8, !tbaa !4
  %15 = getelementptr inbounds nuw %struct.AVCodecContext, ptr %14, i32 0, i32 6
  %16 = load ptr, ptr %15, align 8, !tbaa !11
  store ptr %16, ptr %7, align 8, !tbaa !31
  call void @llvm.lifetime.start.p0(i64 8, ptr %8) #10
  %17 = load ptr, ptr %6, align 8, !tbaa !4
  %18 = getelementptr inbounds nuw %struct.AVCodecContext, ptr %17, i32 0, i32 6
  %19 = load ptr, ptr %18, align 8, !tbaa !11
  store ptr %19, ptr %8, align 8, !tbaa !33
  call void @llvm.lifetime.start.p0(i64 8, ptr %9) #10
  %20 = load ptr, ptr %5, align 8, !tbaa !108
  store ptr %20, ptr %9, align 8, !tbaa !226
  call void @llvm.lifetime.start.p0(i64 4, ptr %10) #10
  %21 = load ptr, ptr %8, align 8, !tbaa !33
  %22 = getelementptr inbounds nuw %struct.VAAPIEncodeContext, ptr %21, i32 0, i32 20
  %23 = load ptr, ptr %22, align 8, !tbaa !62
  %24 = getelementptr inbounds nuw %struct.AVVAAPIDeviceContext, ptr %23, i32 0, i32 0
  %25 = load ptr, ptr %24, align 8, !tbaa !75
  %26 = load ptr, ptr %8, align 8, !tbaa !33
  %27 = getelementptr inbounds nuw %struct.VAAPIEncodeContext, ptr %26, i32 0, i32 19
  %28 = load i32, ptr %27, align 8, !tbaa !57
  %29 = load ptr, ptr %7, align 8, !tbaa !31
  %30 = getelementptr inbounds nuw %struct.FFHWBaseEncodeContext, ptr %29, i32 0, i32 5
  %31 = load i32, ptr %30, align 8, !tbaa !67
  %32 = mul nsw i32 3, %31
  %33 = load ptr, ptr %7, align 8, !tbaa !31
  %34 = getelementptr inbounds nuw %struct.FFHWBaseEncodeContext, ptr %33, i32 0, i32 6
  %35 = load i32, ptr %34, align 4, !tbaa !69
  %36 = mul nsw i32 %32, %35
  %37 = add nsw i32 %36, 65536
  %38 = load ptr, ptr %9, align 8, !tbaa !226
  %39 = call i32 @vaCreateBuffer(ptr noundef %25, i32 noundef %28, i32 noundef 21, i32 noundef %37, i32 noundef 1, ptr noundef null, ptr noundef %38)
  store i32 %39, ptr %10, align 4, !tbaa !37
  %40 = load i32, ptr %10, align 4, !tbaa !37
  %41 = icmp ne i32 %40, 0
  br i1 %41, label %42, label %47

42:                                               ; preds = %2
  %43 = load ptr, ptr %6, align 8, !tbaa !4
  %44 = load i32, ptr %10, align 4, !tbaa !37
  %45 = load i32, ptr %10, align 4, !tbaa !37
  %46 = call ptr @vaErrorStr(i32 noundef %45)
  call void (ptr, i32, ptr, ...) @av_log(ptr noundef %43, i32 noundef 16, ptr noundef @.str.161, i32 noundef %44, ptr noundef %46)
  store i32 -12, ptr %3, align 4
  store i32 1, ptr %11, align 4
  br label %51

47:                                               ; preds = %2
  %48 = load ptr, ptr %6, align 8, !tbaa !4
  %49 = load ptr, ptr %9, align 8, !tbaa !226
  %50 = load i32, ptr %49, align 4, !tbaa !37
  call void (ptr, i32, ptr, ...) @av_log(ptr noundef %48, i32 noundef 48, ptr noundef @.str.162, i32 noundef %50)
  store i32 0, ptr %3, align 4
  store i32 1, ptr %11, align 4
  br label %51

51:                                               ; preds = %47, %42
  call void @llvm.lifetime.end.p0(i64 4, ptr %10) #10
  call void @llvm.lifetime.end.p0(i64 8, ptr %9) #10
  call void @llvm.lifetime.end.p0(i64 8, ptr %8) #10
  call void @llvm.lifetime.end.p0(i64 8, ptr %7) #10
  call void @llvm.lifetime.end.p0(i64 8, ptr %6) #10
  %52 = load i32, ptr %3, align 4
  ret i32 %52
}