; Function Attrs: nounwind uwtable
define internal range(i32 -12, 1) i32 @vaapi_encode_alloc_output_buffer(ptr %0, ptr noundef %1) #0 {
  %3 = getelementptr inbounds nuw i8, ptr %0, i64 32
  %4 = load ptr, ptr %3, align 8, !tbaa !4
  %5 = getelementptr inbounds nuw i8, ptr %4, i64 1312
  %6 = load ptr, ptr %5, align 8, !tbaa !52
  %7 = load ptr, ptr %6, align 8, !tbaa !65
  %8 = getelementptr inbounds nuw i8, ptr %4, i64 1304
  %9 = load i32, ptr %8, align 8, !tbaa !47
  %10 = getelementptr inbounds nuw i8, ptr %4, i64 32
  %11 = load i32, ptr %10, align 8, !tbaa !57
  %12 = mul nsw i32 %11, 3
  %13 = getelementptr inbounds nuw i8, ptr %4, i64 36
  %14 = load i32, ptr %13, align 4, !tbaa !59
  %15 = mul nsw i32 %12, %14
  %16 = add nsw i32 %15, 65536
  %17 = tail call i32 @vaCreateBuffer(ptr noundef %7, i32 noundef %9, i32 noundef 21, i32 noundef %16, i32 noundef 1, ptr noundef null, ptr noundef %1) #9
  %.not = icmp eq i32 %17, 0
  br i1 %.not, label %20, label %18

18:                                               ; preds = %2
  %19 = tail call ptr @vaErrorStr(i32 noundef %17) #9
  tail call void (ptr, i32, ptr, ...) @av_log(ptr noundef nonnull %0, i32 noundef 16, ptr noundef nonnull @.str.161, i32 noundef %17, ptr noundef %19) #9
  br label %22

20:                                               ; preds = %2
  %21 = load i32, ptr %1, align 4, !tbaa !109
  tail call void (ptr, i32, ptr, ...) @av_log(ptr noundef nonnull %0, i32 noundef 48, ptr noundef nonnull @.str.162, i32 noundef %21) #9
  br label %22

22:                                               ; preds = %20, %18
  %.0 = phi i32 [ -12, %18 ], [ 0, %20 ]
  ret i32 %.0
}